; Function Attrs: nounwind uwtable
define internal fastcc void @Wayland_InitColorManager(ptr noundef readonly captures(none) %0) unnamed_addr #0 {
  %2 = getelementptr inbounds nuw i8, ptr %0, i64 296
  %3 = load i32, ptr %2, align 8
  %4 = icmp sgt i32 %3, 0
  br i1 %4, label %.lr.ph, label %._crit_edge

.lr.ph:                                           ; preds = %1
  %5 = getelementptr inbounds nuw i8, ptr %0, i64 288
  br label %6

._crit_edge:                                      ; preds = %6, %1
  ret void

6:                                                ; preds = %.lr.ph, %6
  %indvars.iv = phi i64 [ 0, %.lr.ph ], [ %indvars.iv.next, %6 ]
  %7 = load ptr, ptr %5, align 8
  %8 = getelementptr inbounds nuw ptr, ptr %7, i64 %indvars.iv
  %9 = load ptr, ptr %8, align 8
  %10 = load ptr, ptr %9, align 8
  %11 = getelementptr inbounds nuw i8, ptr %10, i64 224
  %12 = load ptr, ptr %11, align 8
  %13 = getelementptr inbounds nuw i8, ptr %9, i64 8
  %14 = load ptr, ptr %13, align 8
  %15 = load ptr, ptr @WAYLAND_wl_proxy_marshal_flags, align 8
  %16 = load ptr, ptr @WAYLAND_wl_proxy_get_version, align 8
  %17 = tail call i32 %16(ptr noundef %12) #12
  %18 = tail call ptr (ptr, i32, ptr, i32, i32, ...) %15(ptr noundef %12, i32 noundef 1, ptr noundef nonnull @wp_color_management_output_v1_interface, i32 noundef %17, i32 noundef 0, ptr noundef null, ptr noundef %14) #12
  %19 = getelementptr inbounds nuw i8, ptr %9, i64 24
  store ptr %18, ptr %19, align 8
  %20 = load ptr, ptr @WAYLAND_wl_proxy_add_listener, align 8
  %21 = tail call i32 %20(ptr noundef %18, ptr noundef nonnull @wp_color_management_output_listener, ptr noundef nonnull %9) #12
  tail call void @Wayland_GetColorInfoForOutput(ptr noundef nonnull %9, i1 noundef zeroext true) #12
  %indvars.iv.next = add nuw nsw i64 %indvars.iv, 1
  %22 = load i32, ptr %2, align 8
  %23 = sext i32 %22 to i64
  %24 = icmp slt i64 %indvars.iv.next, %23
  br i1 %24, label %6, label %._crit_edge, !llvm.loop !19
}